; ModuleID = '46/911.c'
source_filename = "46/911.c"
target datalayout = "e-m:e-p270:32:32-p271:32:32-p272:64:64-i64:64-f80:128-n8:16:32:64-S128"
target triple = "x86_64-pc-linux-gnu"

@.str = private unnamed_addr constant [5 x i8] c"%d%d\00", align 1
@.str.1 = private unnamed_addr constant [3 x i8] c"%d\00", align 1
@.str.2 = private unnamed_addr constant [4 x i8] c"%d\0A\00", align 1

; Function Attrs: noinline nounwind uwtable
define dso_local i32 @main() #0 {
  %1 = alloca i32, align 4
  %2 = alloca i32, align 4
  %3 = alloca i32, align 4
  %4 = alloca i32, align 4
  %5 = alloca i32, align 4
  %6 = alloca i32, align 4
  %7 = alloca i32, align 4
  %8 = alloca [100 x [100 x i32]], align 16
  %9 = alloca i32, align 4
  %10 = alloca i32, align 4
  store i32 0, i32* %1, align 4
  %11 = call i32 (i8*, ...) @__isoc99_scanf(i8* getelementptr inbounds ([5 x i8], [5 x i8]* @.str, i64 0, i64 0), i32* %2, i32* %3)
  store i32 0, i32* %9, align 4
  br label %12

12:                                               ; preds = %33, %0
  %13 = load i32, i32* %9, align 4
  %14 = load i32, i32* %2, align 4
  %15 = icmp slt i32 %13, %14
  br i1 %15, label %16, label %36

16:                                               ; preds = %12
  store i32 0, i32* %10, align 4
  br label %17

17:                                               ; preds = %29, %16
  %18 = load i32, i32* %10, align 4
  %19 = load i32, i32* %3, align 4
  %20 = icmp slt i32 %18, %19
  br i1 %20, label %21, label %32

21:                                               ; preds = %17
  %22 = load i32, i32* %9, align 4
  %23 = sext i32 %22 to i64
  %24 = getelementptr inbounds [100 x [100 x i32]], [100 x [100 x i32]]* %8, i64 0, i64 %23
  %25 = load i32, i32* %10, align 4
  %26 = sext i32 %25 to i64
  %27 = getelementptr inbounds [100 x i32], [100 x i32]* %24, i64 0, i64 %26
  %28 = call i32 (i8*, ...) @__isoc99_scanf(i8* getelementptr inbounds ([3 x i8], [3 x i8]* @.str.1, i64 0, i64 0), i32* %27)
  br label %29

29:                                               ; preds = %21
  %30 = load i32, i32* %10, align 4
  %31 = add nsw i32 %30, 1
  store i32 %31, i32* %10, align 4
  br label %17

32:                                               ; preds = %17
  br label %33

33:                                               ; preds = %32
  %34 = load i32, i32* %9, align 4
  %35 = add nsw i32 %34, 1
  store i32 %35, i32* %9, align 4
  br label %12

36:                                               ; preds = %12
  store i32 0, i32* %4, align 4
  %37 = load i32, i32* %2, align 4
  store i32 %37, i32* %5, align 4
  store i32 0, i32* %6, align 4
  %38 = load i32, i32* %3, align 4
  store i32 %38, i32* %7, align 4
  br label %39

39:                                               ; preds = %138, %36
  %40 = load i32, i32* %4, align 4
  %41 = load i32, i32* %5, align 4
  %42 = icmp sle i32 %40, %41
  br i1 %42, label %43, label %47

43:                                               ; preds = %39
  %44 = load i32, i32* %6, align 4
  %45 = load i32, i32* %7, align 4
  %46 = icmp sle i32 %44, %45
  br label %47

47:                                               ; preds = %43, %39
  %48 = phi i1 [ false, %39 ], [ %46, %43 ]
  br i1 %48, label %49, label %147

49:                                               ; preds = %47
  %50 = load i32, i32* %6, align 4
  store i32 %50, i32* %10, align 4
  br label %51

51:                                               ; preds = %64, %49
  %52 = load i32, i32* %10, align 4
  %53 = load i32, i32* %7, align 4
  %54 = icmp slt i32 %52, %53
  br i1 %54, label %55, label %67

55:                                               ; preds = %51
  %56 = load i32, i32* %4, align 4
  %57 = sext i32 %56 to i64
  %58 = getelementptr inbounds [100 x [100 x i32]], [100 x [100 x i32]]* %8, i64 0, i64 %57
  %59 = load i32, i32* %10, align 4
  %60 = sext i32 %59 to i64
  %61 = getelementptr inbounds [100 x i32], [100 x i32]* %58, i64 0, i64 %60
  %62 = load i32, i32* %61, align 4
  %63 = call i32 (i8*, ...) @printf(i8* getelementptr inbounds ([4 x i8], [4 x i8]* @.str.2, i64 0, i64 0), i32 %62)
  br label %64

64:                                               ; preds = %55
  %65 = load i32, i32* %10, align 4
  %66 = add nsw i32 %65, 1
  store i32 %66, i32* %10, align 4
  br label %51

67:                                               ; preds = %51
  %68 = load i32, i32* %4, align 4
  %69 = add nsw i32 %68, 1
  store i32 %69, i32* %9, align 4
  br label %70

70:                                               ; preds = %84, %67
  %71 = load i32, i32* %9, align 4
  %72 = load i32, i32* %5, align 4
  %73 = icmp slt i32 %71, %72
  br i1 %73, label %74, label %87

74:                                               ; preds = %70
  %75 = load i32, i32* %9, align 4
  %76 = sext i32 %75 to i64
  %77 = getelementptr inbounds [100 x [100 x i32]], [100 x [100 x i32]]* %8, i64 0, i64 %76
  %78 = load i32, i32* %7, align 4
  %79 = sub nsw i32 %78, 1
  %80 = sext i32 %79 to i64
  %81 = getelementptr inbounds [100 x i32], [100 x i32]* %77, i64 0, i64 %80
  %82 = load i32, i32* %81, align 4
  %83 = call i32 (i8*, ...) @printf(i8* getelementptr inbounds ([4 x i8], [4 x i8]* @.str.2, i64 0, i64 0), i32 %82)
  br label %84

84:                                               ; preds = %74
  %85 = load i32, i32* %9, align 4
  %86 = add nsw i32 %85, 1
  store i32 %86, i32* %9, align 4
  br label %70

87:                                               ; preds = %70
  %88 = load i32, i32* %4, align 4
  %89 = load i32, i32* %5, align 4
  %90 = sub nsw i32 %89, 1
  %91 = icmp sge i32 %88, %90
  br i1 %91, label %92, label %93

92:                                               ; preds = %87
  br label %147

93:                                               ; preds = %87
  %94 = load i32, i32* %6, align 4
  %95 = load i32, i32* %7, align 4
  %96 = sub nsw i32 %95, 1
  %97 = icmp sge i32 %94, %96
  br i1 %97, label %98, label %99

98:                                               ; preds = %93
  br label %147

99:                                               ; preds = %93
  %100 = load i32, i32* %7, align 4
  %101 = sub nsw i32 %100, 2
  store i32 %101, i32* %10, align 4
  br label %102

102:                                              ; preds = %116, %99
  %103 = load i32, i32* %10, align 4
  %104 = load i32, i32* %6, align 4
  %105 = icmp sgt i32 %103, %104
  br i1 %105, label %106, label %119

106:                                              ; preds = %102
  %107 = load i32, i32* %5, align 4
  %108 = sub nsw i32 %107, 1
  %109 = sext i32 %108 to i64
  %110 = getelementptr inbounds [100 x [100 x i32]], [100 x [100 x i32]]* %8, i64 0, i64 %109
  %111 = load i32, i32* %10, align 4
  %112 = sext i32 %111 to i64
  %113 = getelementptr inbounds [100 x i32], [100 x i32]* %110, i64 0, i64 %112
  %114 = load i32, i32* %113, align 4
  %115 = call i32 (i8*, ...) @printf(i8* getelementptr inbounds ([4 x i8], [4 x i8]* @.str.2, i64 0, i64 0), i32 %114)
  br label %116

116:                                              ; preds = %106
  %117 = load i32, i32* %10, align 4
  %118 = add nsw i32 %117, -1
  store i32 %118, i32* %10, align 4
  br label %102

119:                                              ; preds = %102
  %120 = load i32, i32* %5, align 4
  %121 = sub nsw i32 %120, 1
  store i32 %121, i32* %9, align 4
  br label %122

122:                                              ; preds = %135, %119
  %123 = load i32, i32* %9, align 4
  %124 = load i32, i32* %4, align 4
  %125 = icmp sgt i32 %123, %124
  br i1 %125, label %126, label %138

126:                                              ; preds = %122
  %127 = load i32, i32* %9, align 4
  %128 = sext i32 %127 to i64
  %129 = getelementptr inbounds [100 x [100 x i32]], [100 x [100 x i32]]* %8, i64 0, i64 %128
  %130 = load i32, i32* %6, align 4
  %131 = sext i32 %130 to i64
  %132 = getelementptr inbounds [100 x i32], [100 x i32]* %129, i64 0, i64 %131
  %133 = load i32, i32* %132, align 4
  %134 = call i32 (i8*, ...) @printf(i8* getelementptr inbounds ([4 x i8], [4 x i8]* @.str.2, i64 0, i64 0), i32 %133)
  br label %135

135:                                              ; preds = %126
  %136 = load i32, i32* %9, align 4
  %137 = add nsw i32 %136, -1
  store i32 %137, i32* %9, align 4
  br label %122

138:                                              ; preds = %122
  %139 = load i32, i32* %4, align 4
  %140 = add nsw i32 %139, 1
  store i32 %140, i32* %4, align 4
  %141 = load i32, i32* %6, align 4
  %142 = add nsw i32 %141, 1
  store i32 %142, i32* %6, align 4
  %143 = load i32, i32* %5, align 4
  %144 = add nsw i32 %143, -1
  store i32 %144, i32* %5, align 4
  %145 = load i32, i32* %7, align 4
  %146 = add nsw i32 %145, -1
  store i32 %146, i32* %7, align 4
  br label %39

147:                                              ; preds = %98, %92, %47
  ret i32 0
}

declare dso_local i32 @__isoc99_scanf(i8*, ...) #1

declare dso_local i32 @printf(i8*, ...) #1


!llvm.module.flags = !{!0}
!llvm.ident = !{!1}

!0 = !{i32 1, !"wchar_size", i32 4}
!1 = !{!"clang version 10.0.0-4ubuntu1 "}
