; ModuleID = 'source-C-CXX/45/911.c'
source_filename = "source-C-CXX/45/911.c"
target datalayout = "e-m:e-p270:32:32-p271:32:32-p272:64:64-i64:64-f80:128-n8:16:32:64-S128"
target triple = "x86_64-pc-linux-gnu"

@.str = private unnamed_addr constant [5 x i8] c"%d%d\00", align 1
@.str.1 = private unnamed_addr constant [3 x i8] c"%d\00", align 1
@.str.2 = private unnamed_addr constant [4 x i8] c"%d\0A\00", align 1

; Function Attrs: nofree nounwind sspstrong uwtable
define dso_local i32 @main() local_unnamed_addr #0 {
  %1 = alloca i32, align 4
  %2 = alloca i32, align 4
  %3 = alloca [100 x [100 x i32]], align 16
  %4 = bitcast i32* %1 to i8*
  call void @llvm.lifetime.start.p0i8(i64 4, i8* nonnull %4) #3
  %5 = bitcast i32* %2 to i8*
  call void @llvm.lifetime.start.p0i8(i64 4, i8* nonnull %5) #3
  %6 = bitcast [100 x [100 x i32]]* %3 to i8*
  call void @llvm.lifetime.start.p0i8(i64 40000, i8* nonnull %6) #3
  %7 = call i32 (i8*, ...) @__isoc99_scanf(i8* getelementptr inbounds ([5 x i8], [5 x i8]* @.str, i64 0, i64 0), i32* nonnull %1, i32* nonnull %2)
  %8 = load i32, i32* %1, align 4, !tbaa !5
  %9 = icmp sgt i32 %8, 0
  %10 = load i32, i32* %2, align 4, !tbaa !5
  %11 = icmp sgt i32 %10, 0
  %12 = select i1 %9, i1 %11, i1 false
  br i1 %12, label %13, label %34

13:                                               ; preds = %0, %28
  %14 = phi i32 [ %29, %28 ], [ %8, %0 ]
  %15 = phi i32 [ %30, %28 ], [ %10, %0 ]
  %16 = phi i64 [ %31, %28 ], [ 0, %0 ]
  %17 = icmp sgt i32 %15, 0
  br i1 %17, label %18, label %28

18:                                               ; preds = %13, %18
  %19 = phi i64 [ %22, %18 ], [ 0, %13 ]
  %20 = getelementptr inbounds [100 x [100 x i32]], [100 x [100 x i32]]* %3, i64 0, i64 %16, i64 %19
  %21 = call i32 (i8*, ...) @__isoc99_scanf(i8* getelementptr inbounds ([3 x i8], [3 x i8]* @.str.1, i64 0, i64 0), i32* nonnull %20)
  %22 = add nuw nsw i64 %19, 1
  %23 = load i32, i32* %2, align 4, !tbaa !5
  %24 = sext i32 %23 to i64
  %25 = icmp slt i64 %22, %24
  br i1 %25, label %18, label %26, !llvm.loop !9

26:                                               ; preds = %18
  %27 = load i32, i32* %1, align 4, !tbaa !5
  br label %28

28:                                               ; preds = %26, %13
  %29 = phi i32 [ %27, %26 ], [ %14, %13 ]
  %30 = phi i32 [ %23, %26 ], [ %15, %13 ]
  %31 = add nuw nsw i64 %16, 1
  %32 = sext i32 %29 to i64
  %33 = icmp slt i64 %31, %32
  br i1 %33, label %13, label %34, !llvm.loop !11

34:                                               ; preds = %28, %0
  %35 = phi i32 [ %10, %0 ], [ %30, %28 ]
  %36 = phi i32 [ %8, %0 ], [ %29, %28 ]
  %37 = icmp sgt i32 %36, -1
  %38 = icmp sgt i32 %35, -1
  %39 = select i1 %37, i1 %38, i1 false
  br i1 %39, label %40, label %101

40:                                               ; preds = %34
  %41 = add nsw i32 %35, -2
  %42 = zext i32 %36 to i64
  %43 = zext i32 %35 to i64
  br label %44

44:                                               ; preds = %98, %40
  %45 = phi i64 [ %42, %40 ], [ %76, %98 ]
  %46 = phi i64 [ %43, %40 ], [ %63, %98 ]
  %47 = phi i64 [ %42, %40 ], [ %51, %98 ]
  %48 = phi i32 [ %41, %40 ], [ %100, %98 ]
  %49 = phi i64 [ 1, %40 ], [ %99, %98 ]
  %50 = phi i64 [ 0, %40 ], [ %62, %98 ]
  %51 = add nsw i64 %47, -1
  %52 = sext i32 %48 to i64
  %53 = icmp slt i64 %50, %46
  br i1 %53, label %54, label %61

54:                                               ; preds = %44, %54
  %55 = phi i64 [ %59, %54 ], [ %50, %44 ]
  %56 = getelementptr inbounds [100 x [100 x i32]], [100 x [100 x i32]]* %3, i64 0, i64 %50, i64 %55
  %57 = load i32, i32* %56, align 4, !tbaa !5
  %58 = call i32 (i8*, ...) @printf(i8* nonnull dereferenceable(1) getelementptr inbounds ([4 x i8], [4 x i8]* @.str.2, i64 0, i64 0), i32 %57)
  %59 = add nuw nsw i64 %55, 1
  %60 = icmp eq i64 %59, %46
  br i1 %60, label %61, label %54, !llvm.loop !13

61:                                               ; preds = %54, %44
  %62 = add nuw nsw i64 %50, 1
  %63 = add nsw i64 %46, -1
  %64 = shl i64 %62, 32
  %65 = ashr exact i64 %64, 32
  %66 = icmp slt i64 %65, %45
  br i1 %66, label %67, label %75

67:                                               ; preds = %61, %67
  %68 = phi i64 [ %72, %67 ], [ %49, %61 ]
  %69 = getelementptr inbounds [100 x [100 x i32]], [100 x [100 x i32]]* %3, i64 0, i64 %68, i64 %63
  %70 = load i32, i32* %69, align 4, !tbaa !5
  %71 = call i32 (i8*, ...) @printf(i8* nonnull dereferenceable(1) getelementptr inbounds ([4 x i8], [4 x i8]* @.str.2, i64 0, i64 0), i32 %70)
  %72 = add nuw nsw i64 %68, 1
  %73 = and i64 %72, 4294967295
  %74 = icmp eq i64 %73, %45
  br i1 %74, label %75, label %67, !llvm.loop !14

75:                                               ; preds = %67, %61
  %76 = add nsw i64 %45, -1
  %77 = icmp slt i64 %50, %76
  %78 = icmp slt i64 %50, %63
  %79 = select i1 %77, i1 %78, i1 false
  br i1 %79, label %80, label %101

80:                                               ; preds = %75
  %81 = add nsw i64 %46, -2
  %82 = icmp sgt i64 %81, %50
  br i1 %82, label %83, label %90

83:                                               ; preds = %80, %83
  %84 = phi i64 [ %88, %83 ], [ %52, %80 ]
  %85 = getelementptr inbounds [100 x [100 x i32]], [100 x [100 x i32]]* %3, i64 0, i64 %76, i64 %84
  %86 = load i32, i32* %85, align 4, !tbaa !5
  %87 = call i32 (i8*, ...) @printf(i8* nonnull dereferenceable(1) getelementptr inbounds ([4 x i8], [4 x i8]* @.str.2, i64 0, i64 0), i32 %86)
  %88 = add nsw i64 %84, -1
  %89 = icmp sgt i64 %88, %50
  br i1 %89, label %83, label %90, !llvm.loop !15

90:                                               ; preds = %83, %80
  br label %91

91:                                               ; preds = %90, %91
  %92 = phi i64 [ %96, %91 ], [ %51, %90 ]
  %93 = getelementptr inbounds [100 x [100 x i32]], [100 x [100 x i32]]* %3, i64 0, i64 %92, i64 %50
  %94 = load i32, i32* %93, align 4, !tbaa !5
  %95 = call i32 (i8*, ...) @printf(i8* nonnull dereferenceable(1) getelementptr inbounds ([4 x i8], [4 x i8]* @.str.2, i64 0, i64 0), i32 %94)
  %96 = add nsw i64 %92, -1
  %97 = icmp sgt i64 %96, %50
  br i1 %97, label %91, label %98, !llvm.loop !16

98:                                               ; preds = %91
  %99 = add nuw nsw i64 %49, 1
  %100 = add i32 %48, -1
  br label %44, !llvm.loop !17

101:                                              ; preds = %75, %34
  call void @llvm.lifetime.end.p0i8(i64 40000, i8* nonnull %6) #3
  call void @llvm.lifetime.end.p0i8(i64 4, i8* nonnull %5) #3
  call void @llvm.lifetime.end.p0i8(i64 4, i8* nonnull %4) #3
  ret i32 0
}

; Function Attrs: argmemonly mustprogress nofree nosync nounwind willreturn
declare void @llvm.lifetime.start.p0i8(i64 immarg, i8* nocapture) #1

; Function Attrs: nofree nounwind
declare noundef i32 @__isoc99_scanf(i8* nocapture noundef readonly, ...) local_unnamed_addr #2

; Function Attrs: nofree nounwind
declare noundef i32 @printf(i8* nocapture noundef readonly, ...) local_unnamed_addr #2

; Function Attrs: argmemonly mustprogress nofree nosync nounwind willreturn
declare void @llvm.lifetime.end.p0i8(i64 immarg, i8* nocapture) #1


!llvm.module.flags = !{!0, !1, !2, !3}
!llvm.ident = !{!4}

!0 = !{i32 1, !"wchar_size", i32 4}
!1 = !{i32 7, !"PIC Level", i32 2}
!2 = !{i32 7, !"PIE Level", i32 2}
!3 = !{i32 7, !"uwtable", i32 1}
!4 = !{!"clang version 13.0.0"}
!5 = !{!6, !6, i64 0}
!6 = !{!"int", !7, i64 0}
!7 = !{!"omnipotent char", !8, i64 0}
!8 = !{!"Simple C/C++ TBAA"}
!9 = distinct !{!9, !10}
!10 = !{!"llvm.loop.mustprogress"}
!11 = distinct !{!11, !10, !12}
!12 = !{!"llvm.loop.unswitch.partial.disable"}
!13 = distinct !{!13, !10}
!14 = distinct !{!14, !10}
!15 = distinct !{!15, !10}
!16 = distinct !{!16, !10}
!17 = distinct !{!17, !10}
